target datalayout = "e-m:e-p270:32:32-p271:32:32-p272:64:64-i64:64-i128:128-f80:128-n8:16:32:64-S128"
target triple = "x86_64-pc-linux-gnu"

@TMPI_COMM_WORLD = global ptr null, align 8

; Function Attrs: mustprogress uwtable
define noundef ptr @_Z11tMPI_Mallocm(i64 noundef %0) #0 {
  %2 = alloca i64, align 8
  %3 = alloca ptr, align 8
  store i64 %0, ptr %2, align 8
  %4 = load i64, ptr %2, align 8
  %5 = call noalias ptr @malloc(i64 noundef %4) #6
  store ptr %5, ptr %3, align 8
  %6 = load ptr, ptr %3, align 8
  %7 = icmp ne ptr %6, null
  br i1 %7, label %11, label %8

8:                                                ; preds = %1
  %9 = load ptr, ptr @TMPI_COMM_WORLD, align 8
  %10 = call noundef i32 @_Z10tMPI_ErrorP10tmpi_comm_i(ptr noundef %9, i32 noundef 1)
  br label %11

11:                                               ; preds = %8, %1
  %12 = load ptr, ptr %3, align 8
  ret ptr %12
}

; Function Attrs: nounwind allocsize(0)
declare noalias ptr @malloc(i64 noundef) #1

declare noundef i32 @_Z10tMPI_ErrorP10tmpi_comm_i(ptr noundef, i32 noundef) #2

; Function Attrs: mustprogress uwtable
define noundef ptr @_Z12tMPI_ReallocPvm(ptr noundef %0, i64 noundef %1) #0 {
  %3 = alloca ptr, align 8
  %4 = alloca i64, align 8
  %5 = alloca ptr, align 8
  store ptr %0, ptr %3, align 8
  store i64 %1, ptr %4, align 8
  %6 = load ptr, ptr %3, align 8
  %7 = load i64, ptr %4, align 8
  %8 = call ptr @realloc(ptr noundef %6, i64 noundef %7) #7
  store ptr %8, ptr %5, align 8
  %9 = load ptr, ptr %5, align 8
  %10 = icmp ne ptr %9, null
  br i1 %10, label %14, label %11

11:                                               ; preds = %2
  %12 = load ptr, ptr @TMPI_COMM_WORLD, align 8
  %13 = call noundef i32 @_Z10tMPI_ErrorP10tmpi_comm_i(ptr noundef %12, i32 noundef 1)
  br label %14

14:                                               ; preds = %11, %2
  %15 = load ptr, ptr %5, align 8
  ret ptr %15
}

; Function Attrs: nounwind allocsize(1)
declare ptr @realloc(ptr noundef, i64 noundef) #3

; Function Attrs: mustprogress nounwind uwtable
define void @_Z9tMPI_FreePv(ptr noundef %0) #4 {
  %2 = alloca ptr, align 8
  store ptr %0, ptr %2, align 8
  %3 = load ptr, ptr %2, align 8
  call void @free(ptr noundef %3) #8
  ret void
}

; Function Attrs: nounwind
declare void @free(ptr noundef) #5


!llvm.module.flags = !{!0, !1, !2, !3}

!0 = !{i32 1, !"wchar_size", i32 4}
!1 = !{i32 8, !"PIC Level", i32 2}
!2 = !{i32 7, !"uwtable", i32 2}
!3 = !{i32 7, !"frame-pointer", i32 2}
