; ModuleID = 'bench/gromacs/original/tmpi_malloc.cpp.ll'
source_filename = "bench/gromacs/original/tmpi_malloc.cpp.ll"
target datalayout = "e-m:e-p270:32:32-p271:32:32-p272:64:64-i64:64-i128:128-f80:128-n8:16:32:64-S128"
target triple = "x86_64-pc-linux-gnu"

@TMPI_COMM_WORLD = local_unnamed_addr global ptr null, align 8

; Function Attrs: mustprogress uwtable
define noalias noundef ptr @_Z11tMPI_Mallocm(i64 noundef %0) local_unnamed_addr #0 {
  %2 = tail call noalias ptr @malloc(i64 noundef %0) #6
  %.not = icmp eq ptr %2, null
  br i1 %.not, label %3, label %6

3:                                                ; preds = %1
  %4 = load ptr, ptr @TMPI_COMM_WORLD, align 8
  %5 = tail call noundef i32 @_Z10tMPI_ErrorP10tmpi_comm_i(ptr noundef %4, i32 noundef 1)
  br label %6

6:                                                ; preds = %3, %1
  ret ptr %2
}

; Function Attrs: mustprogress nofree nounwind willreturn allockind("alloc,uninitialized") allocsize(0) memory(inaccessiblemem: readwrite)
declare noalias noundef ptr @malloc(i64 noundef) local_unnamed_addr #1

declare noundef i32 @_Z10tMPI_ErrorP10tmpi_comm_i(ptr noundef, i32 noundef) local_unnamed_addr #2

; Function Attrs: mustprogress uwtable
define noalias noundef ptr @_Z12tMPI_ReallocPvm(ptr nocapture noundef %0, i64 noundef %1) local_unnamed_addr #0 {
  %3 = tail call ptr @realloc(ptr noundef %0, i64 noundef %1) #7
  %.not = icmp eq ptr %3, null
  br i1 %.not, label %4, label %7

4:                                                ; preds = %2
  %5 = load ptr, ptr @TMPI_COMM_WORLD, align 8
  %6 = tail call noundef i32 @_Z10tMPI_ErrorP10tmpi_comm_i(ptr noundef %5, i32 noundef 1)
  br label %7

7:                                                ; preds = %4, %2
  ret ptr %3
}

; Function Attrs: mustprogress nounwind willreturn allockind("realloc") allocsize(1) memory(argmem: readwrite, inaccessiblemem: readwrite)
declare noalias noundef ptr @realloc(ptr allocptr nocapture noundef, i64 noundef) local_unnamed_addr #3

; Function Attrs: mustprogress nounwind willreturn memory(argmem: readwrite, inaccessiblemem: readwrite) uwtable
define void @_Z9tMPI_FreePv(ptr nocapture noundef %0) local_unnamed_addr #4 {
  tail call void @free(ptr noundef %0) #8
  ret void
}

; Function Attrs: mustprogress nounwind willreturn allockind("free") memory(argmem: readwrite, inaccessiblemem: readwrite)
declare void @free(ptr allocptr nocapture noundef) local_unnamed_addr #5


!llvm.module.flags = !{!0, !1, !2, !3}

!0 = !{i32 1, !"wchar_size", i32 4}
!1 = !{i32 8, !"PIC Level", i32 2}
!2 = !{i32 7, !"uwtable", i32 2}
!3 = !{i32 7, !"frame-pointer", i32 2}
